target datalayout = "e-m:e-p270:32:32-p271:32:32-p272:64:64-i64:64-i128:128-f80:128-n8:16:32:64-S128"
target triple = "x86_64-pc-linux-gnu"

%union.pthread_mutex_t = type { %struct.__pthread_mutex_s }
%struct.__pthread_mutex_s = type { i32, i32, i32, i32, i32, i16, i16, %struct.__pthread_internal_list }
%struct.__pthread_internal_list = type { ptr, ptr }
%struct.buf_t = type { i32, ptr, i32, i32, i8, i8 }
%struct.gres_prep_t = type { i32, i32, ptr, ptr, ptr }

@gres_context_lock = internal global %union.pthread_mutex_t zeroinitializer, align 8
@.str.6 = private unnamed_addr constant [29 x i8] c"%s: pthread_mutex_lock(): %m\00", align 1
@gres_context_cnt = internal global i32 -1, align 4
@.str.16 = private unnamed_addr constant [31 x i8] c"%s: pthread_mutex_unlock(): %m\00", align 1
@__func__.gres_prep_unpack_legacy = private unnamed_addr constant [24 x i8] c"gres_prep_unpack_legacy\00", align 1
@.str.74 = private unnamed_addr constant [17 x i8] c"%s: unpack error\00", align 1

; Function Attrs: nounwind uwtable
define internal void @_prep_list_del(ptr noundef %0) #0 {
  %2 = alloca ptr, align 8
  %3 = alloca ptr, align 8
  %4 = alloca i32, align 4
  %5 = alloca i32, align 4
  store ptr %0, ptr %2, align 8
  call void @llvm.lifetime.start.p0(i64 8, ptr %3) #11
  %6 = load ptr, ptr %2, align 8
  store ptr %6, ptr %3, align 8
  call void @llvm.lifetime.start.p0(i64 4, ptr %4) #11
  %7 = load ptr, ptr %3, align 8
  %8 = icmp ne ptr %7, null
  br i1 %8, label %10, label %9

9:                                                ; preds = %1
  store i32 1, ptr %5, align 4
  br label %59

10:                                               ; preds = %1
  %11 = load ptr, ptr %3, align 8
  %12 = getelementptr inbounds nuw %struct.gres_prep_t, ptr %11, i32 0, i32 3
  %13 = load ptr, ptr %12, align 8
  %14 = icmp ne ptr %13, null
  br i1 %14, label %15, label %54

15:                                               ; preds = %10
  store i32 0, ptr %4, align 4
  br label %16

16:                                               ; preds = %48, %15
  %17 = load i32, ptr %4, align 4
  %18 = load ptr, ptr %3, align 8
  %19 = getelementptr inbounds nuw %struct.gres_prep_t, ptr %18, i32 0, i32 1
  %20 = load i32, ptr %19, align 4
  %21 = icmp ult i32 %17, %20
  br i1 %21, label %22, label %51

22:                                               ; preds = %16
  br label %23

23:                                               ; preds = %22
  %24 = load ptr, ptr %3, align 8
  %25 = getelementptr inbounds nuw %struct.gres_prep_t, ptr %24, i32 0, i32 3
  %26 = load ptr, ptr %25, align 8
  %27 = load i32, ptr %4, align 4
  %28 = sext i32 %27 to i64
  %29 = getelementptr inbounds ptr, ptr %26, i64 %28
  %30 = load ptr, ptr %29, align 8
  %31 = icmp ne ptr %30, null
  br i1 %31, label %32, label %39

32:                                               ; preds = %23
  %33 = load ptr, ptr %3, align 8
  %34 = getelementptr inbounds nuw %struct.gres_prep_t, ptr %33, i32 0, i32 3
  %35 = load ptr, ptr %34, align 8
  %36 = load i32, ptr %4, align 4
  %37 = sext i32 %36 to i64
  %38 = getelementptr inbounds ptr, ptr %35, i64 %37
  call void @slurm_bit_free(ptr noundef %38)
  br label %39

39:                                               ; preds = %32, %23
  %40 = load ptr, ptr %3, align 8
  %41 = getelementptr inbounds nuw %struct.gres_prep_t, ptr %40, i32 0, i32 3
  %42 = load ptr, ptr %41, align 8
  %43 = load i32, ptr %4, align 4
  %44 = sext i32 %43 to i64
  %45 = getelementptr inbounds ptr, ptr %42, i64 %44
  store ptr null, ptr %45, align 8
  br label %46

46:                                               ; preds = %39
  br label %47

47:                                               ; preds = %46
  br label %48

48:                                               ; preds = %47
  %49 = load i32, ptr %4, align 4
  %50 = add nsw i32 %49, 1
  store i32 %50, ptr %4, align 4
  br label %16, !llvm.loop !112

51:                                               ; preds = %16
  %52 = load ptr, ptr %3, align 8
  %53 = getelementptr inbounds nuw %struct.gres_prep_t, ptr %52, i32 0, i32 3
  call void @slurm_xfree(ptr noundef %53)
  br label %54

54:                                               ; preds = %51, %10
  %55 = load ptr, ptr %3, align 8
  %56 = getelementptr inbounds nuw %struct.gres_prep_t, ptr %55, i32 0, i32 4
  call void @slurm_xfree(ptr noundef %56)
  %57 = load ptr, ptr %3, align 8
  %58 = getelementptr inbounds nuw %struct.gres_prep_t, ptr %57, i32 0, i32 2
  call void @slurm_xfree(ptr noundef %58)
  call void @slurm_xfree(ptr noundef %3)
  store i32 0, ptr %5, align 4
  br label %59

59:                                               ; preds = %54, %9
  call void @llvm.lifetime.end.p0(i64 4, ptr %4) #11
  call void @llvm.lifetime.end.p0(i64 8, ptr %3) #11
  %60 = load i32, ptr %5, align 4
  switch i32 %60, label %62 [
    i32 0, label %61
    i32 1, label %61
  ]

61:                                               ; preds = %59, %59
  ret void

62:                                               ; preds = %59
  unreachable
}

; Function Attrs: nounwind uwtable
define dso_local i32 @gres_prep_unpack_legacy(ptr noundef %0, ptr noundef %1, i16 noundef zeroext %2) #0 {
  %4 = alloca i32, align 4
  %5 = alloca ptr, align 8
  %6 = alloca ptr, align 8
  %7 = alloca i16, align 2
  %8 = alloca i32, align 4
  %9 = alloca i16, align 2
  %10 = alloca ptr, align 8
  %11 = alloca i8, align 1
  %12 = alloca i32, align 4
  %13 = alloca i32, align 4
  %14 = alloca i32, align 4
  %15 = alloca i32, align 4
  store ptr %0, ptr %5, align 8
  store ptr %1, ptr %6, align 8
  store i16 %2, ptr %7, align 2
  call void @llvm.lifetime.start.p0(i64 4, ptr %8) #11
  store i32 0, ptr %8, align 4
  call void @llvm.lifetime.start.p0(i64 2, ptr %9) #11
  store i16 0, ptr %9, align 2
  call void @llvm.lifetime.start.p0(i64 8, ptr %10) #11
  store ptr null, ptr %10, align 8
  call void @llvm.lifetime.start.p0(i64 1, ptr %11) #11
  store i8 0, ptr %11, align 1
  br label %16

16:                                               ; preds = %3
  %17 = load ptr, ptr %6, align 8
  %18 = call i32 @unpack16(ptr noundef %9, ptr noundef %17)
  %19 = icmp ne i32 %18, 0
  br i1 %19, label %20, label %21

20:                                               ; preds = %16
  br label %99

21:                                               ; preds = %16
  br label %22

22:                                               ; preds = %21
  br label %23

23:                                               ; preds = %22
  %24 = load i16, ptr %9, align 2
  %25 = zext i16 %24 to i32
  %26 = icmp eq i32 %25, 0
  br i1 %26, label %27, label %28

27:                                               ; preds = %23
  store i32 0, ptr %4, align 4
  store i32 1, ptr %12, align 4
  br label %120

28:                                               ; preds = %23
  br label %29

29:                                               ; preds = %28
  call void @llvm.lifetime.start.p0(i64 4, ptr %13) #11
  %30 = call i32 @pthread_mutex_lock(ptr noundef @gres_context_lock) #11
  store i32 %30, ptr %13, align 4
  %31 = load i32, ptr %13, align 4
  %32 = icmp ne i32 %31, 0
  br i1 %32, label %33, label %36

33:                                               ; preds = %29
  %34 = load i32, ptr %13, align 4
  %35 = call ptr @__errno_location() #12
  store i32 %34, ptr %35, align 4
  call void (ptr, ...) @fatal_abort(ptr noundef @.str.6, ptr noundef @__func__.gres_prep_unpack_legacy) #13
  unreachable

36:                                               ; preds = %29
  call void @llvm.lifetime.end.p0(i64 4, ptr %13) #11
  br label %37

37:                                               ; preds = %36
  br label %38

38:                                               ; preds = %37
  store i8 1, ptr %11, align 1
  %39 = load i32, ptr @gres_context_cnt, align 4
  %40 = icmp sgt i32 %39, 0
  br i1 %40, label %41, label %48

41:                                               ; preds = %38
  %42 = load ptr, ptr %5, align 8
  %43 = load ptr, ptr %42, align 8
  %44 = icmp eq ptr %43, null
  br i1 %44, label %45, label %48

45:                                               ; preds = %41
  %46 = call ptr @list_create(ptr noundef @_prep_list_del)
  %47 = load ptr, ptr %5, align 8
  store ptr %46, ptr %47, align 8
  br label %48

48:                                               ; preds = %45, %41, %38
  br label %49

49:                                               ; preds = %86, %48
  %50 = load i32, ptr %8, align 4
  %51 = icmp eq i32 %50, 0
  br i1 %51, label %52, label %56

52:                                               ; preds = %49
  %53 = load i16, ptr %9, align 2
  %54 = zext i16 %53 to i32
  %55 = icmp ne i32 %54, 0
  br label %56

56:                                               ; preds = %52, %49
  %57 = phi i1 [ false, %49 ], [ %55, %52 ]
  br i1 %57, label %58, label %87

58:                                               ; preds = %56
  %59 = load ptr, ptr %6, align 8
  %60 = icmp eq ptr %59, null
  br i1 %60, label %70, label %61

61:                                               ; preds = %58
  %62 = load ptr, ptr %6, align 8
  %63 = getelementptr inbounds nuw %struct.buf_t, ptr %62, i32 0, i32 2
  %64 = load i32, ptr %63, align 8
  %65 = load ptr, ptr %6, align 8
  %66 = getelementptr inbounds nuw %struct.buf_t, ptr %65, i32 0, i32 3
  %67 = load i32, ptr %66, align 4
  %68 = sub i32 %64, %67
  %69 = icmp eq i32 %68, 0
  br i1 %69, label %70, label %71

70:                                               ; preds = %61, %58
  br label %87

71:                                               ; preds = %61
  %72 = load i16, ptr %9, align 2
  %73 = add i16 %72, -1
  store i16 %73, ptr %9, align 2
  %74 = load i16, ptr %7, align 2
  %75 = load ptr, ptr %6, align 8
  %76 = call i32 @_gres_prep_unpack(ptr noundef %10, i16 noundef zeroext %74, ptr noundef %75)
  %77 = icmp ne i32 %76, 0
  br i1 %77, label %78, label %79

78:                                               ; preds = %71
  br label %99

79:                                               ; preds = %71
  %80 = load ptr, ptr %10, align 8
  %81 = icmp ne ptr %80, null
  br i1 %81, label %82, label %86

82:                                               ; preds = %79
  %83 = load ptr, ptr %5, align 8
  %84 = load ptr, ptr %83, align 8
  %85 = load ptr, ptr %10, align 8
  call void @list_append(ptr noundef %84, ptr noundef %85)
  store ptr null, ptr %10, align 8
  br label %86

86:                                               ; preds = %82, %79
  br label %49, !llvm.loop !113

87:                                               ; preds = %70, %56
  br label %88

88:                                               ; preds = %87
  call void @llvm.lifetime.start.p0(i64 4, ptr %14) #11
  %89 = call i32 @pthread_mutex_unlock(ptr noundef @gres_context_lock) #11
  store i32 %89, ptr %14, align 4
  %90 = load i32, ptr %14, align 4
  %91 = icmp ne i32 %90, 0
  br i1 %91, label %92, label %95

92:                                               ; preds = %88
  %93 = load i32, ptr %14, align 4
  %94 = call ptr @__errno_location() #12
  store i32 %93, ptr %94, align 4
  call void (ptr, ...) @fatal_abort(ptr noundef @.str.16, ptr noundef @__func__.gres_prep_unpack_legacy) #13
  unreachable

95:                                               ; preds = %88
  call void @llvm.lifetime.end.p0(i64 4, ptr %14) #11
  br label %96

96:                                               ; preds = %95
  br label %97

97:                                               ; preds = %96
  %98 = load i32, ptr %8, align 4
  store i32 %98, ptr %4, align 4
  store i32 1, ptr %12, align 4
  br label %120

99:                                               ; preds = %78, %20
  %100 = call i32 (ptr, ...) @error(ptr noundef @.str.74, ptr noundef @__func__.gres_prep_unpack_legacy)
  %101 = load ptr, ptr %10, align 8
  %102 = icmp ne ptr %101, null
  br i1 %102, label %103, label %105

103:                                              ; preds = %99
  %104 = load ptr, ptr %10, align 8
  call void @_prep_list_del(ptr noundef %104)
  br label %105

105:                                              ; preds = %103, %99
  %106 = load i8, ptr %11, align 1, !range !8, !noundef !9
  %107 = trunc i8 %106 to i1
  br i1 %107, label %108, label %119

108:                                              ; preds = %105
  br label %109

109:                                              ; preds = %108
  call void @llvm.lifetime.start.p0(i64 4, ptr %15) #11
  %110 = call i32 @pthread_mutex_unlock(ptr noundef @gres_context_lock) #11
  store i32 %110, ptr %15, align 4
  %111 = load i32, ptr %15, align 4
  %112 = icmp ne i32 %111, 0
  br i1 %112, label %113, label %116

113:                                              ; preds = %109
  %114 = load i32, ptr %15, align 4
  %115 = call ptr @__errno_location() #12
  store i32 %114, ptr %115, align 4
  call void (ptr, ...) @fatal_abort(ptr noundef @.str.16, ptr noundef @__func__.gres_prep_unpack_legacy) #13
  unreachable

116:                                              ; preds = %109
  call void @llvm.lifetime.end.p0(i64 4, ptr %15) #11
  br label %117

117:                                              ; preds = %116
  br label %118

118:                                              ; preds = %117
  br label %119

119:                                              ; preds = %118, %105
  store i32 -1, ptr %4, align 4
  store i32 1, ptr %12, align 4
  br label %120

120:                                              ; preds = %119, %97, %27
  call void @llvm.lifetime.end.p0(i64 1, ptr %11) #11
  call void @llvm.lifetime.end.p0(i64 8, ptr %10) #11
  call void @llvm.lifetime.end.p0(i64 2, ptr %9) #11
  call void @llvm.lifetime.end.p0(i64 4, ptr %8) #11
  %121 = load i32, ptr %4, align 4
  ret i32 %121
}