; Function Attrs: nounwind uwtable
define dso_local range(i32 -1, 1) i32 @gres_prep_unpack_legacy(ptr noundef captures(none) %0, ptr noundef %1, i16 noundef zeroext %2) local_unnamed_addr #2 {
  %4 = alloca ptr, align 8
  %5 = alloca i16, align 2
  %6 = alloca ptr, align 8
  call void @llvm.lifetime.start.p0(i64 2, ptr nonnull %5) #28
  store i16 0, ptr %5, align 2
  call void @llvm.lifetime.start.p0(i64 8, ptr nonnull %6) #28
  store ptr null, ptr %6, align 8
  %7 = call i32 @unpack16(ptr noundef nonnull %5, ptr noundef %1) #28
  %.not26 = icmp eq i32 %7, 0
  br i1 %.not26, label %9, label %.thread34

.thread34:                                        ; preds = %3
  %8 = call i32 (ptr, ...) @error(ptr noundef nonnull @.str.74, ptr noundef nonnull @__func__.gres_prep_unpack_legacy) #28
  br label %68

9:                                                ; preds = %3
  %10 = load i16, ptr %5, align 2
  %11 = icmp eq i16 %10, 0
  br i1 %11, label %68, label %12

12:                                               ; preds = %9
  %13 = call i32 @pthread_mutex_lock(ptr noundef nonnull @gres_context_lock) #28
  %.not27 = icmp eq i32 %13, 0
  br i1 %.not27, label %16, label %14

14:                                               ; preds = %12
  %15 = tail call ptr @__errno_location() #29
  store i32 %13, ptr %15, align 4
  call void (ptr, ...) @fatal_abort(ptr noundef nonnull @.str.6, ptr noundef nonnull @__func__.gres_prep_unpack_legacy) #30
  unreachable

16:                                               ; preds = %12
  %17 = load i32, ptr @gres_context_cnt, align 4
  %18 = icmp sgt i32 %17, 0
  br i1 %18, label %19, label %24

19:                                               ; preds = %16
  %20 = load ptr, ptr %0, align 8
  %21 = icmp eq ptr %20, null
  br i1 %21, label %22, label %24

22:                                               ; preds = %19
  %23 = call ptr @list_create(ptr noundef nonnull @_prep_list_del) #28
  store ptr %23, ptr %0, align 8
  br label %24

24:                                               ; preds = %22, %19, %16
  %25 = icmp eq ptr %1, null
  %26 = load i16, ptr %5, align 2
  %.not2835 = icmp eq i16 %26, 0
  %or.cond36 = or i1 %25, %.not2835
  br i1 %or.cond36, label %._crit_edge, label %.lr.ph

.lr.ph:                                           ; preds = %24
  %27 = getelementptr inbounds nuw i8, ptr %1, i64 16
  %28 = getelementptr inbounds nuw i8, ptr %1, i64 20
  br label %29

29:                                               ; preds = %.lr.ph, %41
  %30 = phi i16 [ %26, %.lr.ph ], [ %42, %41 ]
  %31 = load i32, ptr %27, align 8
  %32 = load i32, ptr %28, align 4
  %33 = icmp eq i32 %31, %32
  br i1 %33, label %._crit_edge, label %34

34:                                               ; preds = %29
  %35 = add i16 %30, -1
  store i16 %35, ptr %5, align 2
  %36 = call i32 @_gres_prep_unpack(ptr noundef nonnull %6, i16 noundef zeroext %2, ptr noundef nonnull %1)
  %.not = icmp eq i32 %36, 0
  %37 = load ptr, ptr %6, align 8
  br i1 %.not, label %38, label %.split

38:                                               ; preds = %34
  %.not29 = icmp eq ptr %37, null
  br i1 %.not29, label %41, label %39

39:                                               ; preds = %38
  %40 = load ptr, ptr %0, align 8
  call void @list_append(ptr noundef %40, ptr noundef nonnull %37) #28
  store ptr null, ptr %6, align 8
  br label %41

41:                                               ; preds = %39, %38
  %42 = load i16, ptr %5, align 2
  %.not28 = icmp eq i16 %42, 0
  br i1 %.not28, label %._crit_edge, label %29, !llvm.loop !132

._crit_edge:                                      ; preds = %29, %41, %24
  %43 = call i32 @pthread_mutex_unlock(ptr noundef nonnull @gres_context_lock) #28
  %.not30 = icmp eq i32 %43, 0
  br i1 %.not30, label %68, label %44

44:                                               ; preds = %._crit_edge
  %45 = tail call ptr @__errno_location() #29
  store i32 %43, ptr %45, align 4
  call void (ptr, ...) @fatal_abort(ptr noundef nonnull @.str.16, ptr noundef nonnull @__func__.gres_prep_unpack_legacy) #30
  unreachable

.split:                                           ; preds = %34
  %46 = call i32 (ptr, ...) @error(ptr noundef nonnull @.str.74, ptr noundef nonnull @__func__.gres_prep_unpack_legacy) #28
  %.not31 = icmp eq ptr %37, null
  br i1 %.not31, label %64, label %47

47:                                               ; preds = %.split
  call void @llvm.lifetime.start.p0(i64 8, ptr nonnull %4) #28
  store ptr %37, ptr %4, align 8
  %48 = getelementptr inbounds nuw i8, ptr %37, i64 16
  %49 = load ptr, ptr %48, align 8
  %.not6.i = icmp eq ptr %49, null
  br i1 %.not6.i, label %_prep_list_del.exit, label %.preheader.i

.preheader.i:                                     ; preds = %47
  %50 = getelementptr inbounds nuw i8, ptr %37, i64 4
  %51 = load i32, ptr %50, align 4
  %.not9.i = icmp eq i32 %51, 0
  br i1 %.not9.i, label %._crit_edge.i, label %.lr.ph.i

.lr.ph.i:                                         ; preds = %.preheader.i, %56
  %indvars.iv.i = phi i64 [ %indvars.iv.next.i, %56 ], [ 0, %.preheader.i ]
  %52 = load ptr, ptr %48, align 8
  %53 = getelementptr inbounds nuw ptr, ptr %52, i64 %indvars.iv.i
  %54 = load ptr, ptr %53, align 8
  %.not7.i = icmp eq ptr %54, null
  br i1 %.not7.i, label %56, label %55

55:                                               ; preds = %.lr.ph.i
  call void @slurm_bit_free(ptr noundef nonnull %53) #28
  %.pre.i = load ptr, ptr %48, align 8
  br label %56

56:                                               ; preds = %55, %.lr.ph.i
  %57 = phi ptr [ %.pre.i, %55 ], [ %52, %.lr.ph.i ]
  %58 = getelementptr inbounds nuw ptr, ptr %57, i64 %indvars.iv.i
  store ptr null, ptr %58, align 8
  %indvars.iv.next.i = add nuw nsw i64 %indvars.iv.i, 1
  %59 = load i32, ptr %50, align 4
  %60 = zext i32 %59 to i64
  %61 = icmp samesign ult i64 %indvars.iv.next.i, %60
  br i1 %61, label %.lr.ph.i, label %._crit_edge.i, !llvm.loop !131

._crit_edge.i:                                    ; preds = %56, %.preheader.i
  call void @slurm_xfree(ptr noundef nonnull %48) #28
  br label %_prep_list_del.exit

_prep_list_del.exit:                              ; preds = %47, %._crit_edge.i
  %62 = getelementptr inbounds nuw i8, ptr %37, i64 24
  call void @slurm_xfree(ptr noundef nonnull %62) #28
  %63 = getelementptr inbounds nuw i8, ptr %37, i64 8
  call void @slurm_xfree(ptr noundef nonnull %63) #28
  call void @slurm_xfree(ptr noundef nonnull %4) #28
  call void @llvm.lifetime.end.p0(i64 8, ptr nonnull %4) #28
  br label %64

64:                                               ; preds = %.split, %_prep_list_del.exit
  %65 = call i32 @pthread_mutex_unlock(ptr noundef nonnull @gres_context_lock) #28
  %.not32 = icmp eq i32 %65, 0
  br i1 %.not32, label %68, label %66

66:                                               ; preds = %64
  %67 = tail call ptr @__errno_location() #29
  store i32 %65, ptr %67, align 4
  call void (ptr, ...) @fatal_abort(ptr noundef nonnull @.str.16, ptr noundef nonnull @__func__.gres_prep_unpack_legacy) #30
  unreachable

68:                                               ; preds = %.thread34, %64, %._crit_edge, %9
  %.0 = phi i32 [ 0, %9 ], [ 0, %._crit_edge ], [ -1, %64 ], [ -1, %.thread34 ]
  call void @llvm.lifetime.end.p0(i64 8, ptr nonnull %6) #28
  call void @llvm.lifetime.end.p0(i64 2, ptr nonnull %5) #28
  ret i32 %.0
}